target datalayout = "e-m:e-p270:32:32-p271:32:32-p272:64:64-i64:64-i128:128-f80:128-n8:16:32:64-S128"
target triple = "x86_64-pc-linux-gnu"

%struct.expert_field = type { i32, i32 }
%struct.true_false_string = type { ptr, ptr }
%struct._asn1_ctx_t = type { i32, i32, i8, ptr, ptr, ptr, ptr, ptr, %struct.anon, %struct.anon.2, %struct.anon.3, ptr }
%struct.anon = type { i32, i8, i8, i8, ptr, ptr, i32, i32, ptr, ptr, ptr, %union.anon }
%union.anon = type { %struct.anon.0 }
%struct.anon.0 = type { ptr }
%struct.anon.2 = type { ptr, ptr, ptr }
%struct.anon.3 = type { i32, i8, ptr, i32, i32, ptr, ptr, ptr, %union.anon.4 }
%union.anon.4 = type { %struct.anon.5 }
%struct.anon.5 = type { ptr }

@.str.3 = private unnamed_addr constant [8 x i8] c"Unknown\00", align 1
@ei_ber_expected_null = internal global %struct.expert_field zeroinitializer, align 4
@.str.6 = private unnamed_addr constant [67 x i8] c"BER Error: NULL expected but class:%s(%d) %s tag:%d was unexpected\00", align 1
@tfs_constructed_primitive = external constant %struct.true_false_string, align 8
@ei_ber_expected_null_zero_length = internal global %struct.expert_field zeroinitializer, align 4
@.str.7 = private unnamed_addr constant [60 x i8] c"BER Error: NULL type expects zero length data but Length=%d\00", align 1
@hf_ber_extra_data = internal global i32 0, align 4

; Function Attrs: null_pointer_is_valid sspstrong uwtable
define i32 @dissect_ber_null(i1 noundef zeroext %0, ptr noundef %1, ptr noundef %2, ptr noundef %3, i32 noundef %4, i32 noundef %5) #0 {
  %7 = alloca i8, align 1
  %8 = alloca ptr, align 8
  %9 = alloca ptr, align 8
  %10 = alloca ptr, align 8
  %11 = alloca i32, align 4
  %12 = alloca i32, align 4
  %13 = alloca i8, align 1
  %14 = alloca i8, align 1
  %15 = alloca i32, align 4
  %16 = alloca i32, align 4
  %17 = alloca i32, align 4
  %18 = alloca i32, align 4
  %19 = alloca i32, align 4
  %20 = alloca i32, align 4
  %21 = zext i1 %0 to i8
  store i8 %21, ptr %7, align 1
  store ptr %1, ptr %8, align 8
  store ptr %2, ptr %9, align 8
  store ptr %3, ptr %10, align 8
  store i32 %4, ptr %11, align 4
  store i32 %5, ptr %12, align 4
  call void @llvm.lifetime.start.p0(i64 1, ptr %13) #12
  call void @llvm.lifetime.start.p0(i64 1, ptr %14) #12
  call void @llvm.lifetime.start.p0(i64 4, ptr %15) #12
  call void @llvm.lifetime.start.p0(i64 4, ptr %16) #12
  call void @llvm.lifetime.start.p0(i64 4, ptr %17) #12
  call void @llvm.lifetime.start.p0(i64 4, ptr %18) #12
  call void @llvm.lifetime.start.p0(i64 4, ptr %19) #12
  call void @llvm.lifetime.start.p0(i64 4, ptr %20) #12
  %22 = load i8, ptr %7, align 1, !range !6, !noundef !7
  %23 = trunc i8 %22 to i1
  br i1 %23, label %97, label %24

24:                                               ; preds = %6
  %25 = load i32, ptr %11, align 4
  store i32 %25, ptr %16, align 4
  %26 = load ptr, ptr %8, align 8
  %27 = getelementptr inbounds nuw %struct._asn1_ctx_t, ptr %26, i32 0, i32 3
  %28 = load ptr, ptr %27, align 8
  %29 = load ptr, ptr %9, align 8
  %30 = load ptr, ptr %10, align 8
  %31 = load i32, ptr %11, align 4
  %32 = call i32 @dissect_ber_identifier(ptr noundef %28, ptr noundef %29, ptr noundef %30, i32 noundef %31, ptr noundef %13, ptr noundef %14, ptr noundef %15)
  store i32 %32, ptr %11, align 4
  %33 = load i32, ptr %11, align 4
  %34 = load i32, ptr %16, align 4
  %35 = sub i32 %33, %34
  store i32 %35, ptr %17, align 4
  %36 = load i8, ptr %14, align 1, !range !6, !noundef !7
  %37 = trunc i8 %36 to i1
  br i1 %37, label %45, label %38

38:                                               ; preds = %24
  %39 = load i8, ptr %13, align 1
  %40 = sext i8 %39 to i32
  %41 = icmp ne i32 %40, 0
  br i1 %41, label %45, label %42

42:                                               ; preds = %38
  %43 = load i32, ptr %15, align 4
  %44 = icmp ne i32 %43, 5
  br i1 %44, label %45, label %63

45:                                               ; preds = %42, %38, %24
  %46 = load ptr, ptr %9, align 8
  %47 = load ptr, ptr %8, align 8
  %48 = getelementptr inbounds nuw %struct._asn1_ctx_t, ptr %47, i32 0, i32 3
  %49 = load ptr, ptr %48, align 8
  %50 = load ptr, ptr %10, align 8
  %51 = load i32, ptr %16, align 4
  %52 = load i32, ptr %17, align 4
  %53 = load i8, ptr %13, align 1
  %54 = sext i8 %53 to i32
  %55 = call ptr @val_to_str_const(i32 noundef %54, ptr noundef @ber_class_codes, ptr noundef @.str.3)
  %56 = load i8, ptr %13, align 1
  %57 = sext i8 %56 to i32
  %58 = load i8, ptr %14, align 1, !range !6, !noundef !7
  %59 = trunc i8 %58 to i1
  %60 = call ptr @tfs_get_string(i1 noundef zeroext %59, ptr noundef @tfs_constructed_primitive)
  %61 = load i32, ptr %15, align 4
  %62 = call ptr (ptr, ptr, ptr, ptr, i32, i32, ptr, ...) @proto_tree_add_expert_format(ptr noundef %46, ptr noundef %49, ptr noundef @ei_ber_expected_null, ptr noundef %50, i32 noundef %51, i32 noundef %52, ptr noundef @.str.6, ptr noundef %55, i32 noundef %57, ptr noundef %60, i32 noundef %61)
  br label %63

63:                                               ; preds = %45, %42
  %64 = load i32, ptr %11, align 4
  store i32 %64, ptr %19, align 4
  %65 = load ptr, ptr %8, align 8
  %66 = getelementptr inbounds nuw %struct._asn1_ctx_t, ptr %65, i32 0, i32 3
  %67 = load ptr, ptr %66, align 8
  %68 = load ptr, ptr %9, align 8
  %69 = load ptr, ptr %10, align 8
  %70 = load i32, ptr %11, align 4
  %71 = call i32 @dissect_ber_length(ptr noundef %67, ptr noundef %68, ptr noundef %69, i32 noundef %70, ptr noundef %18, ptr noundef null)
  store i32 %71, ptr %11, align 4
  %72 = load i32, ptr %11, align 4
  %73 = load i32, ptr %19, align 4
  %74 = sub i32 %72, %73
  store i32 %74, ptr %20, align 4
  %75 = load i32, ptr %18, align 4
  %76 = icmp ne i32 %75, 0
  br i1 %76, label %77, label %96

77:                                               ; preds = %63
  %78 = load ptr, ptr %9, align 8
  %79 = load ptr, ptr %8, align 8
  %80 = getelementptr inbounds nuw %struct._asn1_ctx_t, ptr %79, i32 0, i32 3
  %81 = load ptr, ptr %80, align 8
  %82 = load ptr, ptr %10, align 8
  %83 = load i32, ptr %19, align 4
  %84 = load i32, ptr %20, align 4
  %85 = load i32, ptr %18, align 4
  %86 = call ptr (ptr, ptr, ptr, ptr, i32, i32, ptr, ...) @proto_tree_add_expert_format(ptr noundef %78, ptr noundef %81, ptr noundef @ei_ber_expected_null_zero_length, ptr noundef %82, i32 noundef %83, i32 noundef %84, ptr noundef @.str.7, i32 noundef %85)
  %87 = load ptr, ptr %9, align 8
  %88 = load i32, ptr @hf_ber_extra_data, align 4
  %89 = load ptr, ptr %10, align 8
  %90 = load i32, ptr %11, align 4
  %91 = load i32, ptr %18, align 4
  %92 = call ptr @proto_tree_add_item(ptr noundef %87, i32 noundef %88, ptr noundef %89, i32 noundef %90, i32 noundef %91, i32 noundef 0)
  %93 = load i32, ptr %18, align 4
  %94 = load i32, ptr %11, align 4
  %95 = add i32 %94, %93
  store i32 %95, ptr %11, align 4
  br label %96

96:                                               ; preds = %77, %63
  br label %97

97:                                               ; preds = %96, %6
  %98 = load i32, ptr %12, align 4
  %99 = icmp sgt i32 %98, 0
  br i1 %99, label %100, label %106

100:                                              ; preds = %97
  %101 = load ptr, ptr %9, align 8
  %102 = load i32, ptr %12, align 4
  %103 = load ptr, ptr %10, align 8
  %104 = load i32, ptr %11, align 4
  %105 = call ptr @proto_tree_add_item(ptr noundef %101, i32 noundef %102, ptr noundef %103, i32 noundef %104, i32 noundef 0, i32 noundef 0)
  br label %106

106:                                              ; preds = %100, %97
  %107 = load i32, ptr %11, align 4
  call void @llvm.lifetime.end.p0(i64 4, ptr %20) #12
  call void @llvm.lifetime.end.p0(i64 4, ptr %19) #12
  call void @llvm.lifetime.end.p0(i64 4, ptr %18) #12
  call void @llvm.lifetime.end.p0(i64 4, ptr %17) #12
  call void @llvm.lifetime.end.p0(i64 4, ptr %16) #12
  call void @llvm.lifetime.end.p0(i64 4, ptr %15) #12
  call void @llvm.lifetime.end.p0(i64 1, ptr %14) #12
  call void @llvm.lifetime.end.p0(i64 1, ptr %13) #12
  ret i32 %107
}