; Function Attrs: null_pointer_is_valid sspstrong uwtable
define i32 @dissect_ber_null(i1 noundef zeroext %0, ptr noundef readonly captures(none) %1, ptr noundef %2, ptr noundef %3, i32 noundef %4, i32 noundef %5) local_unnamed_addr #0 {
  %7 = alloca i8, align 1
  %8 = alloca i8, align 1
  %9 = alloca i32, align 4
  %10 = alloca i32, align 4
  call void @llvm.lifetime.start.p0(i64 1, ptr nonnull %7) #14
  call void @llvm.lifetime.start.p0(i64 1, ptr nonnull %8) #14
  call void @llvm.lifetime.start.p0(i64 4, ptr nonnull %9) #14
  call void @llvm.lifetime.start.p0(i64 4, ptr nonnull %10) #14
  br i1 %0, label %44, label %11

11:                                               ; preds = %6
  %12 = getelementptr inbounds nuw i8, ptr %1, i64 16
  %13 = call i32 @dissect_ber_identifier(ptr poison, ptr noundef %2, ptr noundef %3, i32 noundef %4, ptr noundef nonnull %7, ptr noundef nonnull %8, ptr noundef nonnull %9)
  %14 = load i8, ptr %8, align 1, !range !8, !noundef !9
  %15 = trunc nuw i8 %14 to i1
  %16 = load i8, ptr %7, align 1
  %17 = icmp ne i8 %16, 0
  %or.cond = select i1 %15, i1 true, i1 %17
  %18 = load i32, ptr %9, align 4
  %19 = icmp ne i32 %18, 5
  %or.cond4 = select i1 %or.cond, i1 true, i1 %19
  br i1 %or.cond4, label %20, label %32

20:                                               ; preds = %11
  %21 = sext i8 %16 to i32
  %22 = sub i32 %13, %4
  %23 = load ptr, ptr %12, align 8
  %24 = call ptr @val_to_str_const(i32 noundef %21, ptr noundef nonnull @ber_class_codes, ptr noundef nonnull @.str.3)
  %25 = load i8, ptr %7, align 1
  %26 = sext i8 %25 to i32
  %27 = load i8, ptr %8, align 1, !range !8, !noundef !9
  %28 = trunc nuw i8 %27 to i1
  %29 = call ptr @tfs_get_string(i1 noundef zeroext %28, ptr noundef nonnull @tfs_constructed_primitive)
  %30 = load i32, ptr %9, align 4
  %31 = call ptr (ptr, ptr, ptr, ptr, i32, i32, ptr, ...) @proto_tree_add_expert_format(ptr noundef %2, ptr noundef %23, ptr noundef nonnull @ei_ber_expected_null, ptr noundef %3, i32 noundef %4, i32 noundef %22, ptr noundef nonnull @.str.6, ptr noundef %24, i32 noundef %26, ptr noundef %29, i32 noundef %30)
  br label %32

32:                                               ; preds = %11, %20
  %33 = call i32 @dissect_ber_length(ptr poison, ptr noundef %2, ptr noundef %3, i32 noundef %13, ptr noundef nonnull %10, ptr noundef null)
  %34 = load i32, ptr %10, align 4
  %.not = icmp eq i32 %34, 0
  br i1 %.not, label %44, label %35

35:                                               ; preds = %32
  %36 = sub i32 %33, %13
  %37 = load ptr, ptr %12, align 8
  %38 = call ptr (ptr, ptr, ptr, ptr, i32, i32, ptr, ...) @proto_tree_add_expert_format(ptr noundef %2, ptr noundef %37, ptr noundef nonnull @ei_ber_expected_null_zero_length, ptr noundef %3, i32 noundef %13, i32 noundef %36, ptr noundef nonnull @.str.7, i32 noundef %34)
  %39 = load i32, ptr @hf_ber_extra_data, align 4
  %40 = load i32, ptr %10, align 4
  %41 = call ptr @proto_tree_add_item(ptr noundef %2, i32 noundef %39, ptr noundef %3, i32 noundef %33, i32 noundef %40, i32 noundef 0)
  %42 = load i32, ptr %10, align 4
  %43 = add i32 %42, %33
  br label %44

44:                                               ; preds = %32, %35, %6
  %.0 = phi i32 [ %4, %6 ], [ %43, %35 ], [ %33, %32 ]
  %45 = icmp sgt i32 %5, 0
  br i1 %45, label %46, label %48

46:                                               ; preds = %44
  %47 = call ptr @proto_tree_add_item(ptr noundef %2, i32 noundef %5, ptr noundef %3, i32 noundef %.0, i32 noundef 0, i32 noundef 0)
  br label %48

48:                                               ; preds = %46, %44
  call void @llvm.lifetime.end.p0(i64 4, ptr nonnull %10) #14
  call void @llvm.lifetime.end.p0(i64 4, ptr nonnull %9) #14
  call void @llvm.lifetime.end.p0(i64 1, ptr nonnull %8) #14
  call void @llvm.lifetime.end.p0(i64 1, ptr nonnull %7) #14
  ret i32 %.0
}